target datalayout = "e-m:e-p270:32:32-p271:32:32-p272:64:64-i64:64-i128:128-f80:128-n8:16:32:64-S128"
target triple = "x86_64-unknown-linux-gnu"

%"class.base::BucketRanges" = type <{ %"class.std::vector", i32, [4 x i8] }>
%"class.std::vector" = type { %"struct.std::_Vector_base" }
%"struct.std::_Vector_base" = type { %"struct.std::_Vector_base<int, std::allocator<int>>::_Vector_impl" }
%"struct.std::_Vector_base<int, std::allocator<int>>::_Vector_impl" = type { %"struct.std::_Vector_base<int, std::allocator<int>>::_Vector_impl_data" }
%"struct.std::_Vector_base<int, std::allocator<int>>::_Vector_impl_data" = type { ptr, ptr, ptr }

@_ZN4base13HistogramBase15kSampleType_MAXE = external constant i32, align 4

; Function Attrs: mustprogress nounwind uwtable
define linkonce_odr dso_local noundef i64 @_ZNKSt6vectorIiSaIiEE4sizeEv(ptr noundef nonnull align 8 dereferenceable(24) %this) #2 comdat align 2 {
entry:
  %this.addr = alloca ptr, align 8
  store ptr %this, ptr %this.addr, align 8
  %this1 = load ptr, ptr %this.addr, align 8
  %_M_impl = getelementptr inbounds %"struct.std::_Vector_base", ptr %this1, i32 0, i32 0
  %_M_finish = getelementptr inbounds %"struct.std::_Vector_base<int, std::allocator<int>>::_Vector_impl_data", ptr %_M_impl, i32 0, i32 1
  %0 = load ptr, ptr %_M_finish, align 8
  %_M_impl2 = getelementptr inbounds %"struct.std::_Vector_base", ptr %this1, i32 0, i32 0
  %_M_start = getelementptr inbounds %"struct.std::_Vector_base<int, std::allocator<int>>::_Vector_impl_data", ptr %_M_impl2, i32 0, i32 0
  %1 = load ptr, ptr %_M_start, align 8
  %sub.ptr.lhs.cast = ptrtoint ptr %0 to i64
  %sub.ptr.rhs.cast = ptrtoint ptr %1 to i64
  %sub.ptr.sub = sub i64 %sub.ptr.lhs.cast, %sub.ptr.rhs.cast
  %sub.ptr.div = sdiv exact i64 %sub.ptr.sub, 4
  ret i64 %sub.ptr.div
}

; Function Attrs: mustprogress nounwind uwtable
define linkonce_odr dso_local noundef i64 @_ZNK4base12BucketRanges12bucket_countEv(ptr noundef nonnull align 8 dereferenceable(28) %this) #2 comdat align 2 {
entry:
  %this.addr = alloca ptr, align 8
  store ptr %this, ptr %this.addr, align 8
  %this1 = load ptr, ptr %this.addr, align 8
  %ranges_ = getelementptr inbounds %"class.base::BucketRanges", ptr %this1, i32 0, i32 0
  %call = call noundef i64 @_ZNKSt6vectorIiSaIiEE4sizeEv(ptr noundef nonnull align 8 dereferenceable(24) %ranges_) #12
  %sub = sub i64 %call, 1
  ret i64 %sub
}

; Function Attrs: mustprogress uwtable
define dso_local void @_ZN4base9Histogram22InitializeBucketRangesEiiPNS_12BucketRangesE(i32 noundef %minimum, i32 noundef %maximum, ptr noundef %ranges) #0 align 2 {
entry:
  %minimum.addr = alloca i32, align 4
  %maximum.addr = alloca i32, align 4
  %ranges.addr = alloca ptr, align 8
  %log_max = alloca double, align 8
  %log_ratio = alloca double, align 8
  %log_next = alloca double, align 8
  %bucket_index = alloca i64, align 8
  %current = alloca i32, align 4
  %bucket_count = alloca i64, align 8
  %log_current = alloca double, align 8
  %next = alloca i32, align 4
  store i32 %minimum, ptr %minimum.addr, align 4
  store i32 %maximum, ptr %maximum.addr, align 4
  store ptr %ranges, ptr %ranges.addr, align 8
  %0 = load i32, ptr %maximum.addr, align 4
  %conv = sitofp i32 %0 to double
  %call = call double @log(double noundef %conv) #12
  store double %call, ptr %log_max, align 8
  store i64 1, ptr %bucket_index, align 8
  %1 = load i32, ptr %minimum.addr, align 4
  store i32 %1, ptr %current, align 4
  %2 = load ptr, ptr %ranges.addr, align 8
  %3 = load i64, ptr %bucket_index, align 8
  %4 = load i32, ptr %current, align 4
  call void @_ZN4base12BucketRanges9set_rangeEmi(ptr noundef nonnull align 8 dereferenceable(28) %2, i64 noundef %3, i32 noundef %4)
  %5 = load ptr, ptr %ranges.addr, align 8
  %call1 = call noundef i64 @_ZNK4base12BucketRanges12bucket_countEv(ptr noundef nonnull align 8 dereferenceable(28) %5)
  store i64 %call1, ptr %bucket_count, align 8
  br label %while.cond

while.cond:                                       ; preds = %if.end, %entry
  %6 = load i64, ptr %bucket_count, align 8
  %7 = load i64, ptr %bucket_index, align 8
  %inc = add i64 %7, 1
  store i64 %inc, ptr %bucket_index, align 8
  %cmp = icmp ugt i64 %6, %inc
  br i1 %cmp, label %while.body, label %while.end

while.body:                                       ; preds = %while.cond
  %8 = load i32, ptr %current, align 4
  %conv2 = sitofp i32 %8 to double
  %call3 = call double @log(double noundef %conv2) #12
  store double %call3, ptr %log_current, align 8
  %9 = load double, ptr %log_max, align 8
  %10 = load double, ptr %log_current, align 8
  %sub = fsub double %9, %10
  %11 = load i64, ptr %bucket_count, align 8
  %12 = load i64, ptr %bucket_index, align 8
  %sub4 = sub i64 %11, %12
  %conv5 = uitofp i64 %sub4 to double
  %div = fdiv double %sub, %conv5
  store double %div, ptr %log_ratio, align 8
  %13 = load double, ptr %log_current, align 8
  %14 = load double, ptr %log_ratio, align 8
  %add = fadd double %13, %14
  store double %add, ptr %log_next, align 8
  %15 = load double, ptr %log_next, align 8
  %call6 = call double @exp(double noundef %15) #12
  %add7 = fadd double %call6, 5.000000e-01
  %16 = call double @llvm.floor.f64(double %add7)
  %conv8 = fptosi double %16 to i32
  store i32 %conv8, ptr %next, align 4
  %17 = load i32, ptr %next, align 4
  %18 = load i32, ptr %current, align 4
  %cmp9 = icmp sgt i32 %17, %18
  br i1 %cmp9, label %if.then, label %if.else

if.then:                                          ; preds = %while.body
  %19 = load i32, ptr %next, align 4
  store i32 %19, ptr %current, align 4
  br label %if.end

if.else:                                          ; preds = %while.body
  %20 = load i32, ptr %current, align 4
  %inc10 = add nsw i32 %20, 1
  store i32 %inc10, ptr %current, align 4
  br label %if.end

if.end:                                           ; preds = %if.else, %if.then
  %21 = load ptr, ptr %ranges.addr, align 8
  %22 = load i64, ptr %bucket_index, align 8
  %23 = load i32, ptr %current, align 4
  call void @_ZN4base12BucketRanges9set_rangeEmi(ptr noundef nonnull align 8 dereferenceable(28) %21, i64 noundef %22, i32 noundef %23)
  br label %while.cond, !llvm.loop !5

while.end:                                        ; preds = %while.cond
  %24 = load ptr, ptr %ranges.addr, align 8
  %25 = load ptr, ptr %ranges.addr, align 8
  %call11 = call noundef i64 @_ZNK4base12BucketRanges12bucket_countEv(ptr noundef nonnull align 8 dereferenceable(28) %25)
  %26 = load i32, ptr @_ZN4base13HistogramBase15kSampleType_MAXE, align 4
  call void @_ZN4base12BucketRanges9set_rangeEmi(ptr noundef nonnull align 8 dereferenceable(28) %24, i64 noundef %call11, i32 noundef %26)
  %27 = load ptr, ptr %ranges.addr, align 8
  call void @_ZN4base12BucketRanges13ResetChecksumEv(ptr noundef nonnull align 8 dereferenceable(28) %27)
  ret void
}