; Function Attrs: mustprogress uwtable
define dso_local void @_ZN4base9Histogram22InitializeBucketRangesEiiPNS_12BucketRangesE(i32 noundef %minimum, i32 noundef %maximum, ptr noundef nonnull %ranges) local_unnamed_addr #0 align 2 {
entry:
  %conv = sitofp i32 %maximum to double
  %call = tail call double @log(double noundef %conv) #19
  tail call void @_ZN4base12BucketRanges9set_rangeEmi(ptr noundef nonnull align 8 dereferenceable(28) %ranges, i64 noundef 1, i32 noundef %minimum)
  %_M_finish.i.i = getelementptr inbounds i8, ptr %ranges, i64 8
  %0 = load ptr, ptr %_M_finish.i.i, align 8
  %1 = load ptr, ptr %ranges, align 8
  %sub.ptr.lhs.cast.i.i = ptrtoint ptr %0 to i64
  %sub.ptr.rhs.cast.i.i = ptrtoint ptr %1 to i64
  %sub.ptr.sub.i.i = sub i64 %sub.ptr.lhs.cast.i.i, %sub.ptr.rhs.cast.i.i
  %sub.ptr.div.i.i = ashr exact i64 %sub.ptr.sub.i.i, 2
  %sub.i = add nsw i64 %sub.ptr.div.i.i, -1
  %cmp22 = icmp ugt i64 %sub.i, 2
  br i1 %cmp22, label %while.body, label %while.end

while.body:                                       ; preds = %entry, %while.body
  %inc24 = phi i64 [ %inc, %while.body ], [ 2, %entry ]
  %current.023 = phi i32 [ %current.1, %while.body ], [ %minimum, %entry ]
  %conv2 = sitofp i32 %current.023 to double
  %call3 = tail call double @log(double noundef %conv2) #19
  %sub = fsub double %call, %call3
  %sub4 = sub i64 %sub.i, %inc24
  %conv5 = uitofp i64 %sub4 to double
  %div = fdiv double %sub, %conv5
  %add = fadd double %call3, %div
  %call6 = tail call double @exp(double noundef %add) #19
  %add7 = fadd double %call6, 5.000000e-01
  %2 = tail call double @llvm.floor.f64(double %add7)
  %conv8 = fptosi double %2 to i32
  %cmp9 = icmp slt i32 %current.023, %conv8
  %inc10 = add nsw i32 %current.023, 1
  %current.1 = select i1 %cmp9, i32 %conv8, i32 %inc10
  tail call void @_ZN4base12BucketRanges9set_rangeEmi(ptr noundef nonnull align 8 dereferenceable(28) %ranges, i64 noundef %inc24, i32 noundef %current.1)
  %inc = add nuw i64 %inc24, 1
  %exitcond.not = icmp eq i64 %inc, %sub.i
  br i1 %exitcond.not, label %while.end.loopexit, label %while.body, !llvm.loop !5

while.end.loopexit:                               ; preds = %while.body
  %.pre = load ptr, ptr %_M_finish.i.i, align 8
  %.pre25 = load ptr, ptr %ranges, align 8
  %.pre26 = ptrtoint ptr %.pre to i64
  %.pre27 = ptrtoint ptr %.pre25 to i64
  %.pre28 = sub i64 %.pre26, %.pre27
  %.pre29 = ashr exact i64 %.pre28, 2
  %.pre30 = add nsw i64 %.pre29, -1
  br label %while.end

while.end:                                        ; preds = %while.end.loopexit, %entry
  %sub.i21.pre-phi = phi i64 [ %.pre30, %while.end.loopexit ], [ %sub.i, %entry ]
  %3 = load i32, ptr @_ZN4base13HistogramBase15kSampleType_MAXE, align 4
  tail call void @_ZN4base12BucketRanges9set_rangeEmi(ptr noundef nonnull align 8 dereferenceable(28) %ranges, i64 noundef %sub.i21.pre-phi, i32 noundef %3)
  tail call void @_ZN4base12BucketRanges13ResetChecksumEv(ptr noundef nonnull align 8 dereferenceable(28) %ranges)
  ret void
}